target datalayout = "e-m:e-p270:32:32-p271:32:32-p272:64:64-i64:64-i128:128-f80:128-n8:16:32:64-S128"
target triple = "x86_64-pc-linux-gnu"

%struct.ossl_cmp_certstatus_st = type { ptr, ptr, ptr, ptr }

; Function Attrs: nounwind uwtable
define i32 @ossl_cmp_certstatus_set0_certHash(ptr noundef %0, ptr noundef %1) #0 {
  %3 = alloca i32, align 4
  %4 = alloca ptr, align 8
  %5 = alloca ptr, align 8
  store ptr %0, ptr %4, align 8, !tbaa !146
  store ptr %1, ptr %5, align 8, !tbaa !65
  %6 = load ptr, ptr %4, align 8, !tbaa !146
  %7 = icmp ne ptr %6, null
  %8 = zext i1 %7 to i32
  %9 = icmp ne i32 %8, 0
  %10 = xor i1 %9, true
  %11 = xor i1 %10, true
  %12 = zext i1 %11 to i32
  %13 = sext i32 %12 to i64
  %14 = call i64 @llvm.expect.i64(i64 %13, i64 1)
  %15 = icmp ne i64 %14, 0
  br i1 %15, label %17, label %16

16:                                               ; preds = %2
  store i32 0, ptr %3, align 4
  br label %24

17:                                               ; preds = %2
  %18 = load ptr, ptr %4, align 8, !tbaa !146
  %19 = getelementptr inbounds nuw %struct.ossl_cmp_certstatus_st, ptr %18, i32 0, i32 0
  %20 = load ptr, ptr %19, align 8, !tbaa !148
  call void @ASN1_OCTET_STRING_free(ptr noundef %20)
  %21 = load ptr, ptr %5, align 8, !tbaa !65
  %22 = load ptr, ptr %4, align 8, !tbaa !146
  %23 = getelementptr inbounds nuw %struct.ossl_cmp_certstatus_st, ptr %22, i32 0, i32 0
  store ptr %21, ptr %23, align 8, !tbaa !148
  store i32 1, ptr %3, align 4
  br label %24

24:                                               ; preds = %17, %16
  %25 = load i32, ptr %3, align 4
  ret i32 %25
}