; Function Attrs: nounwind uwtable
define range(i32 0, 2) i32 @ossl_cmp_certstatus_set0_certHash(ptr noundef captures(address_is_null) %0, ptr noundef %1) local_unnamed_addr #0 {
  %.not = icmp eq ptr %0, null
  br i1 %.not, label %5, label %3, !prof !18

3:                                                ; preds = %2
  %4 = load ptr, ptr %0, align 8, !tbaa !96
  tail call void @ASN1_OCTET_STRING_free(ptr noundef %4) #7
  store ptr %1, ptr %0, align 8, !tbaa !96
  br label %5

5:                                                ; preds = %2, %3
  %.0 = phi i32 [ 1, %3 ], [ 0, %2 ]
  ret i32 %.0
}